; Function Attrs: null_pointer_is_valid sspstrong uwtable
define internal fastcc void @dissect_amqp_0_9_method_file_consume(ptr noundef %0, ptr noundef %1, ptr noundef %2) unnamed_addr #0 {
  %4 = load i32, ptr @hf_amqp_method_file_consume_ticket, align 4
  %5 = tail call ptr @proto_tree_add_item(ptr noundef %2, i32 noundef %4, ptr noundef %0, i32 noundef 11, i32 noundef 2, i32 noundef 0)
  %6 = load i32, ptr @hf_amqp_method_file_consume_queue, align 4
  %7 = tail call zeroext i8 @tvb_get_uint8(ptr noundef %0, i32 noundef 13)
  %8 = zext i8 %7 to i32
  %9 = tail call ptr @proto_tree_add_item(ptr noundef %2, i32 noundef %6, ptr noundef %0, i32 noundef 14, i32 noundef %8, i32 noundef 0)
  %10 = tail call zeroext i8 @tvb_get_uint8(ptr noundef %0, i32 noundef 13)
  %11 = zext i8 %10 to i32
  %12 = add nuw nsw i32 %11, 14
  %13 = load i32, ptr @hf_amqp_method_file_consume_consumer_tag, align 4
  %14 = add nuw nsw i32 %11, 15
  %15 = tail call zeroext i8 @tvb_get_uint8(ptr noundef %0, i32 noundef %12)
  %16 = zext i8 %15 to i32
  %17 = tail call ptr @proto_tree_add_item(ptr noundef %2, i32 noundef %13, ptr noundef %0, i32 noundef %14, i32 noundef %16, i32 noundef 0)
  %18 = tail call zeroext i8 @tvb_get_uint8(ptr noundef %0, i32 noundef %12)
  %19 = zext i8 %18 to i32
  %20 = add nuw nsw i32 %14, %19
  %21 = load i32, ptr @hf_amqp_method_file_consume_no_local, align 4
  %22 = tail call ptr @proto_tree_add_item(ptr noundef %2, i32 noundef %21, ptr noundef %0, i32 noundef %20, i32 noundef 1, i32 noundef 0)
  %23 = load i32, ptr @hf_amqp_method_file_consume_no_ack, align 4
  %24 = tail call ptr @proto_tree_add_item(ptr noundef %2, i32 noundef %23, ptr noundef %0, i32 noundef %20, i32 noundef 1, i32 noundef 0)
  %25 = load i32, ptr @hf_amqp_method_file_consume_exclusive, align 4
  %26 = tail call ptr @proto_tree_add_item(ptr noundef %2, i32 noundef %25, ptr noundef %0, i32 noundef %20, i32 noundef 1, i32 noundef 0)
  %27 = load i32, ptr @hf_amqp_method_file_consume_nowait, align 4
  %28 = tail call ptr @proto_tree_add_item(ptr noundef %2, i32 noundef %27, ptr noundef %0, i32 noundef %20, i32 noundef 1, i32 noundef 0)
  %29 = add nuw nsw i32 %20, 1
  %30 = load i32, ptr @hf_amqp_method_file_consume_filter, align 4
  %31 = add nuw nsw i32 %20, 5
  %32 = tail call i32 @tvb_get_ntohl(ptr noundef %0, i32 noundef %29)
  %33 = tail call ptr @proto_tree_add_item(ptr noundef %2, i32 noundef %30, ptr noundef %0, i32 noundef %31, i32 noundef %32, i32 noundef 0)
  %34 = tail call i32 @tvb_get_ntohl(ptr noundef %0, i32 noundef %29)
  tail call fastcc void @dissect_amqp_0_9_field_table(ptr noundef %0, ptr noundef %1, i32 noundef %31, i32 noundef %34, ptr noundef %33)
  %35 = tail call i32 @tvb_get_ntohl(ptr noundef %0, i32 noundef %29)
  ret void
}